; Function Attrs: mustprogress uwtable
define void @_ZN5folly12stringPrintfEPNSt7__cxx1112basic_stringIcSt11char_traitsIcESaIcEEEPKcz(ptr noundef nonnull initializes((8, 16)) %0, ptr noundef %1, ...) local_unnamed_addr #3 personality ptr @__gxx_personality_v0 {
  %3 = alloca [1 x %struct.__va_list_tag], align 16
  call void @llvm.lifetime.start.p0(i64 24, ptr nonnull %3) #26
  call void @llvm.va_start.p0(ptr nonnull %3)
  %4 = getelementptr inbounds nuw i8, ptr %0, i64 8
  store i64 0, ptr %4, align 8, !tbaa !21
  %5 = load ptr, ptr %0, align 8, !tbaa !24
  store i8 0, ptr %5, align 1, !tbaa !7
  invoke fastcc void @_ZN5folly12_GLOBAL__N_117stringAppendfImplERNSt7__cxx1112basic_stringIcSt11char_traitsIcESaIcEEEPKcP13__va_list_tag(ptr noundef nonnull align 8 dereferenceable(32) %0, ptr noundef %1, ptr noundef nonnull %3)
          to label %"_ZN5folly6detail14ScopeGuardImplIZNS_12stringPrintfEPNSt7__cxx1112basic_stringIcSt11char_traitsIcESaIcEEEPKczE3$_0Lb1EED2Ev.exit" unwind label %"_ZN5folly6detail14ScopeGuardImplIZNS_12stringPrintfEPNSt7__cxx1112basic_stringIcSt11char_traitsIcESaIcEEEPKczE3$_0Lb1EED2Ev.exit7"

"_ZN5folly6detail14ScopeGuardImplIZNS_12stringPrintfEPNSt7__cxx1112basic_stringIcSt11char_traitsIcESaIcEEEPKczE3$_0Lb1EED2Ev.exit": ; preds = %2
  call void @llvm.va_end.p0(ptr nonnull %3)
  call void @llvm.lifetime.end.p0(i64 24, ptr nonnull %3) #26
  ret void

"_ZN5folly6detail14ScopeGuardImplIZNS_12stringPrintfEPNSt7__cxx1112basic_stringIcSt11char_traitsIcESaIcEEEPKczE3$_0Lb1EED2Ev.exit7": ; preds = %2
  %6 = landingpad { ptr, i32 }
          cleanup
  call void @llvm.va_end.p0(ptr nonnull %3)
  call void @llvm.lifetime.end.p0(i64 24, ptr nonnull %3) #26
  resume { ptr, i32 } %6
}